; Function Attrs: null_pointer_is_valid sspstrong uwtable
define ptr @fvalue_get_bytes_data(ptr noundef %0) local_unnamed_addr #0 {
  %2 = load ptr, ptr %0, align 8
  %3 = getelementptr inbounds nuw i8, ptr %2, i64 120
  %4 = load ptr, ptr %3, align 8
  %5 = tail call ptr %4(ptr noundef %0)
  %6 = tail call ptr @g_bytes_get_data(ptr noundef %5, ptr noundef null)
  tail call void @g_bytes_unref(ptr noundef %5)
  ret ptr %6
}